target datalayout = "e-m:e-p270:32:32-p271:32:32-p272:64:64-i64:64-i128:128-f80:128-n8:16:32:64-S128"
target triple = "x86_64-unknown-linux-gnu"

%class.StringView = type { ptr, ptr }
%"class.llvh::itanium_demangle::Node" = type <{ ptr, i8, i8, i8, i8, [4 x i8] }>
%"struct.llvh::ItaniumPartialDemangler" = type { ptr, ptr }
%"struct.llvh::itanium_demangle::AbiTagAttr" = type { %"class.llvh::itanium_demangle::Node.base", ptr, %class.StringView }
%"class.llvh::itanium_demangle::Node.base" = type <{ ptr, i8, i8, i8, i8 }>
%"struct.llvh::itanium_demangle::StdQualifiedName" = type { %"class.llvh::itanium_demangle::Node.base", ptr }
%"struct.llvh::itanium_demangle::NestedName" = type { %"class.llvh::itanium_demangle::Node.base", ptr, ptr }
%"struct.llvh::itanium_demangle::LocalName" = type { %"class.llvh::itanium_demangle::Node.base", ptr, ptr }
%"struct.llvh::itanium_demangle::NameWithTemplateArgs" = type { %"class.llvh::itanium_demangle::Node.base", ptr, ptr }
%"class.llvh::itanium_demangle::FunctionEncoding" = type <{ %"class.llvh::itanium_demangle::Node.base", [4 x i8], ptr, ptr, %"class.llvh::itanium_demangle::NodeArray", ptr, i32, i8, [3 x i8] }>
%"class.llvh::itanium_demangle::NodeArray" = type { ptr, i64 }

; Function Attrs: mustprogress nounwind uwtable
define linkonce_odr hidden noundef zeroext i8 @_ZNK4llvh16itanium_demangle4Node7getKindEv(ptr noundef nonnull align 8 dereferenceable(12) %this) #0 comdat align 2 {
entry:
  %this.addr = alloca ptr, align 8
  store ptr %this, ptr %this.addr, align 8
  %this1 = load ptr, ptr %this.addr, align 8
  %K = getelementptr inbounds %"class.llvh::itanium_demangle::Node", ptr %this1, i32 0, i32 1
  %0 = load i8, ptr %K, align 8
  ret i8 %0
}

; Function Attrs: mustprogress nounwind uwtable
define linkonce_odr hidden noundef ptr @_ZNK4llvh16itanium_demangle16FunctionEncoding7getNameEv(ptr noundef nonnull align 8 dereferenceable(64) %this) #0 comdat align 2 {
entry:
  %this.addr = alloca ptr, align 8
  store ptr %this, ptr %this.addr, align 8
  %this1 = load ptr, ptr %this.addr, align 8
  %Name = getelementptr inbounds %"class.llvh::itanium_demangle::FunctionEncoding", ptr %this1, i32 0, i32 3
  %0 = load ptr, ptr %Name, align 8
  ret ptr %0
}

; Function Attrs: mustprogress nounwind uwtable
define hidden noundef zeroext i1 @_ZNK4llvh23ItaniumPartialDemangler10isFunctionEv(ptr noundef nonnull align 8 dereferenceable(16) %this) #0 align 2 {
entry:
  %this.addr = alloca ptr, align 8
  store ptr %this, ptr %this.addr, align 8
  %this1 = load ptr, ptr %this.addr, align 8
  %RootNode = getelementptr inbounds %"struct.llvh::ItaniumPartialDemangler", ptr %this1, i32 0, i32 0
  %0 = load ptr, ptr %RootNode, align 8
  %call = call noundef zeroext i8 @_ZNK4llvh16itanium_demangle4Node7getKindEv(ptr noundef nonnull align 8 dereferenceable(12) %0)
  %conv = zext i8 %call to i32
  %cmp = icmp eq i32 %conv, 18
  ret i1 %cmp
}

; Function Attrs: mustprogress nounwind uwtable
define hidden noundef ptr @_ZNK4llvh23ItaniumPartialDemangler19getFunctionBaseNameEPcPm(ptr noundef nonnull align 8 dereferenceable(16) %this, ptr noundef %Buf, ptr noundef %N) #0 align 2 {
entry:
  %retval = alloca ptr, align 8
  %this.addr = alloca ptr, align 8
  %Buf.addr = alloca ptr, align 8
  %N.addr = alloca ptr, align 8
  %Name = alloca ptr, align 8
  store ptr %this, ptr %this.addr, align 8
  store ptr %Buf, ptr %Buf.addr, align 8
  store ptr %N, ptr %N.addr, align 8
  %this1 = load ptr, ptr %this.addr, align 8
  %call = call noundef zeroext i1 @_ZNK4llvh23ItaniumPartialDemangler10isFunctionEv(ptr noundef nonnull align 8 dereferenceable(16) %this1)
  br i1 %call, label %if.end, label %if.then

if.then:                                          ; preds = %entry
  store ptr null, ptr %retval, align 8
  br label %return

if.end:                                           ; preds = %entry
  %RootNode = getelementptr inbounds %"struct.llvh::ItaniumPartialDemangler", ptr %this1, i32 0, i32 0
  %0 = load ptr, ptr %RootNode, align 8
  %call2 = call noundef ptr @_ZNK4llvh16itanium_demangle16FunctionEncoding7getNameEv(ptr noundef nonnull align 8 dereferenceable(64) %0)
  store ptr %call2, ptr %Name, align 8
  br label %while.body

while.body:                                       ; preds = %sw.bb8, %sw.bb7, %sw.bb5, %sw.bb4, %sw.bb, %if.end
  %1 = load ptr, ptr %Name, align 8
  %call3 = call noundef zeroext i8 @_ZNK4llvh16itanium_demangle4Node7getKindEv(ptr noundef nonnull align 8 dereferenceable(12) %1)
  %conv = zext i8 %call3 to i32
  switch i32 %conv, label %sw.default [
    i32 8, label %sw.bb
    i32 34, label %sw.bb4
    i32 23, label %sw.bb5
    i32 24, label %sw.bb7
    i32 32, label %sw.bb8
  ]

sw.bb:                                            ; preds = %while.body
  %2 = load ptr, ptr %Name, align 8
  %Base = getelementptr inbounds %"struct.llvh::itanium_demangle::AbiTagAttr", ptr %2, i32 0, i32 1
  %3 = load ptr, ptr %Base, align 8
  store ptr %3, ptr %Name, align 8
  br label %while.body, !llvm.loop !7

sw.bb4:                                           ; preds = %while.body
  %4 = load ptr, ptr %Name, align 8
  %Child = getelementptr inbounds %"struct.llvh::itanium_demangle::StdQualifiedName", ptr %4, i32 0, i32 1
  %5 = load ptr, ptr %Child, align 8
  store ptr %5, ptr %Name, align 8
  br label %while.body, !llvm.loop !7

sw.bb5:                                           ; preds = %while.body
  %6 = load ptr, ptr %Name, align 8
  %Name6 = getelementptr inbounds %"struct.llvh::itanium_demangle::NestedName", ptr %6, i32 0, i32 2
  %7 = load ptr, ptr %Name6, align 8
  store ptr %7, ptr %Name, align 8
  br label %while.body, !llvm.loop !7

sw.bb7:                                           ; preds = %while.body
  %8 = load ptr, ptr %Name, align 8
  %Entity = getelementptr inbounds %"struct.llvh::itanium_demangle::LocalName", ptr %8, i32 0, i32 2
  %9 = load ptr, ptr %Entity, align 8
  store ptr %9, ptr %Name, align 8
  br label %while.body, !llvm.loop !7

sw.bb8:                                           ; preds = %while.body
  %10 = load ptr, ptr %Name, align 8
  %Name9 = getelementptr inbounds %"struct.llvh::itanium_demangle::NameWithTemplateArgs", ptr %10, i32 0, i32 1
  %11 = load ptr, ptr %Name9, align 8
  store ptr %11, ptr %Name, align 8
  br label %while.body, !llvm.loop !7

sw.default:                                       ; preds = %while.body
  %12 = load ptr, ptr %Name, align 8
  %13 = load ptr, ptr %Buf.addr, align 8
  %14 = load ptr, ptr %N.addr, align 8
  %call10 = call noundef ptr @_ZL9printNodePKN4llvh16itanium_demangle4NodeEPcPm(ptr noundef %12, ptr noundef %13, ptr noundef %14)
  store ptr %call10, ptr %retval, align 8
  br label %return

return:                                           ; preds = %sw.default, %if.then
  %15 = load ptr, ptr %retval, align 8
  ret ptr %15
}