; Function Attrs: mustprogress nounwind uwtable
define hidden noundef ptr @_ZNK4llvh23ItaniumPartialDemangler19getFunctionBaseNameEPcPm(ptr nocapture noundef nonnull readonly align 8 dereferenceable(16) %this, ptr noundef %Buf, ptr noundef %N) local_unnamed_addr #1 align 2 {
entry:
  %0 = load ptr, ptr %this, align 8
  %K.i.i = getelementptr inbounds i8, ptr %0, i64 8
  %1 = load i8, ptr %K.i.i, align 8
  %cmp.i = icmp eq i8 %1, 18
  br i1 %cmp.i, label %if.end, label %return

if.end:                                           ; preds = %entry
  %Name.i = getelementptr inbounds i8, ptr %0, i64 24
  br label %while.body

while.body:                                       ; preds = %while.body.backedge, %if.end
  %Name.0.in = phi ptr [ %Name.i, %if.end ], [ %Base, %while.body.backedge ]
  %Name.0 = load ptr, ptr %Name.0.in, align 8
  %K.i = getelementptr inbounds i8, ptr %Name.0, i64 8
  %2 = load i8, ptr %K.i, align 8
  switch i8 %2, label %sw.default [
    i8 8, label %while.body.backedge
    i8 34, label %while.body.backedge
    i8 23, label %sw.bb5
    i8 24, label %sw.bb7
    i8 32, label %while.body.backedge
  ]

while.body.backedge:                              ; preds = %while.body, %while.body, %while.body, %sw.bb5, %sw.bb7
  %.sink = phi i64 [ 24, %sw.bb5 ], [ 24, %sw.bb7 ], [ 16, %while.body ], [ 16, %while.body ], [ 16, %while.body ]
  %Base = getelementptr inbounds i8, ptr %Name.0, i64 %.sink
  br label %while.body, !llvm.loop !9

sw.bb5:                                           ; preds = %while.body
  br label %while.body.backedge

sw.bb7:                                           ; preds = %while.body
  br label %while.body.backedge

sw.default:                                       ; preds = %while.body
  %call10 = tail call fastcc noundef ptr @_ZL9printNodePKN4llvh16itanium_demangle4NodeEPcPm(ptr noundef nonnull %Name.0, ptr noundef %Buf, ptr noundef %N)
  br label %return

return:                                           ; preds = %entry, %sw.default
  %retval.0 = phi ptr [ %call10, %sw.default ], [ null, %entry ]
  ret ptr %retval.0
}